target datalayout = "e-m:e-p270:32:32-p271:32:32-p272:64:64-i64:64-i128:128-f80:128-n8:16:32:64-S128"
target triple = "x86_64-pc-linux-gnu"

%struct.__va_list_tag = type { i32, i32, ptr, ptr }
%"class.nanobind::builtin_exception" = type <{ %"class.std::runtime_error", i32, [4 x i8] }>
%"class.std::runtime_error" = type { %"class.std::exception", %"struct.std::__cow_string" }
%"class.std::exception" = type { ptr }
%"struct.std::__cow_string" = type { %union.anon }
%union.anon = type { ptr }
%"struct.nanobind::detail::scoped_pymalloc" = type { ptr }

@.str.17 = private unnamed_addr constant [59 x i8] c"scoped_pymalloc(): could not allocate %zu bytes of memory!\00", align 1

; Function Attrs: mustprogress nounwind uwtable
define linkonce_odr hidden void @_ZN8nanobind6detail15scoped_pymallocIcED2Ev(ptr noundef nonnull align 8 dereferenceable(8) %0) unnamed_addr #4 comdat align 2 personality ptr @__gxx_personality_v0 {
  %2 = alloca ptr, align 8
  store ptr %0, ptr %2, align 8
  %3 = load ptr, ptr %2, align 8
  %4 = getelementptr inbounds nuw %"struct.nanobind::detail::scoped_pymalloc", ptr %3, i32 0, i32 0
  %5 = load ptr, ptr %4, align 8
  invoke void @PyMem_Free(ptr noundef %5)
          to label %6 unwind label %7

6:                                                ; preds = %1
  ret void

7:                                                ; preds = %1
  %8 = landingpad { ptr, i32 }
          catch ptr null
  %9 = extractvalue { ptr, i32 } %8, 0
  call void @__clang_call_terminate(ptr %9) #22
  unreachable
}

; Function Attrs: mustprogress nounwind uwtable
define linkonce_odr hidden noundef ptr @_ZNK8nanobind6detail15scoped_pymallocIcE3getEv(ptr noundef nonnull align 8 dereferenceable(8) %0) #4 comdat align 2 {
  %2 = alloca ptr, align 8
  store ptr %0, ptr %2, align 8
  %3 = load ptr, ptr %2, align 8
  %4 = getelementptr inbounds nuw %"struct.nanobind::detail::scoped_pymalloc", ptr %3, i32 0, i32 0
  %5 = load ptr, ptr %4, align 8
  ret ptr %5
}

; Function Attrs: mustprogress uwtable
define linkonce_odr hidden void @_ZN8nanobind6detail15scoped_pymallocIcEC2Em(ptr noundef nonnull align 8 dereferenceable(8) %0, i64 noundef %1) unnamed_addr #12 comdat align 2 {
  %3 = alloca ptr, align 8
  %4 = alloca i64, align 8
  store ptr %0, ptr %3, align 8
  store i64 %1, ptr %4, align 8
  %5 = load ptr, ptr %3, align 8
  %6 = getelementptr inbounds nuw %"struct.nanobind::detail::scoped_pymalloc", ptr %5, i32 0, i32 0
  store ptr null, ptr %6, align 8
  %7 = load i64, ptr %4, align 8
  %8 = mul i64 %7, 1
  %9 = call ptr @PyMem_Malloc(i64 noundef %8)
  %10 = getelementptr inbounds nuw %"struct.nanobind::detail::scoped_pymalloc", ptr %5, i32 0, i32 0
  store ptr %9, ptr %10, align 8
  %11 = getelementptr inbounds nuw %"struct.nanobind::detail::scoped_pymalloc", ptr %5, i32 0, i32 0
  %12 = load ptr, ptr %11, align 8
  %13 = icmp ne ptr %12, null
  br i1 %13, label %16, label %14

14:                                               ; preds = %2
  %15 = load i64, ptr %4, align 8
  call void (ptr, ...) @_ZN8nanobind6detail4failEPKcz(ptr noundef @.str.17, i64 noundef %15) #22
  unreachable

16:                                               ; preds = %2
  ret void
}

; Function Attrs: mustprogress noinline uwtable
define internal void @_ZN8nanobind6detailL16create_exceptionENS_14exception_typeEPKcP13__va_list_tag(ptr dead_on_unwind noalias writable sret(%"class.nanobind::builtin_exception") align 8 %0, i32 noundef %1, ptr noundef %2, ptr noundef %3) #3 personality ptr @__gxx_personality_v0 {
  %5 = alloca ptr, align 8
  %6 = alloca i32, align 4
  %7 = alloca ptr, align 8
  %8 = alloca ptr, align 8
  %9 = alloca [512 x i8], align 16
  %10 = alloca [1 x %struct.__va_list_tag], align 16
  %11 = alloca i32, align 4
  %12 = alloca i32, align 4
  %13 = alloca %"struct.nanobind::detail::scoped_pymalloc", align 8
  %14 = alloca ptr, align 8
  %15 = alloca i32, align 4
  store ptr %0, ptr %5, align 8
  store i32 %1, ptr %6, align 4
  store ptr %2, ptr %7, align 8
  store ptr %3, ptr %8, align 8
  call void @llvm.lifetime.start.p0(i64 512, ptr %9) #20
  call void @llvm.lifetime.start.p0(i64 24, ptr %10) #20
  %16 = getelementptr inbounds [1 x %struct.__va_list_tag], ptr %10, i64 0, i64 0
  %17 = load ptr, ptr %8, align 8
  call void @llvm.va_copy.p0(ptr %16, ptr %17)
  call void @llvm.lifetime.start.p0(i64 4, ptr %11) #20
  %18 = getelementptr inbounds [512 x i8], ptr %9, i64 0, i64 0
  %19 = load ptr, ptr %7, align 8
  %20 = getelementptr inbounds [1 x %struct.__va_list_tag], ptr %10, i64 0, i64 0
  %21 = call i32 @vsnprintf(ptr noundef %18, i64 noundef 512, ptr noundef %19, ptr noundef %20) #20
  store i32 %21, ptr %11, align 4
  %22 = getelementptr inbounds [1 x %struct.__va_list_tag], ptr %10, i64 0, i64 0
  call void @llvm.va_end.p0(ptr %22)
  %23 = load i32, ptr %11, align 4
  %24 = icmp slt i32 %23, 512
  br i1 %24, label %25, label %28

25:                                               ; preds = %4
  %26 = load i32, ptr %6, align 4
  %27 = getelementptr inbounds [512 x i8], ptr %9, i64 0, i64 0
  call void @_ZN8nanobind17builtin_exceptionC1ENS_14exception_typeEPKc(ptr noundef nonnull align 8 dereferenceable(20) %0, i32 noundef %26, ptr noundef %27)
  store i32 1, ptr %12, align 4
  br label %51

28:                                               ; preds = %4
  call void @llvm.lifetime.start.p0(i64 8, ptr %13) #20
  %29 = load i32, ptr %11, align 4
  %30 = add nsw i32 %29, 1
  %31 = sext i32 %30 to i64
  call void @_ZN8nanobind6detail15scoped_pymallocIcEC2Em(ptr noundef nonnull align 8 dereferenceable(8) %13, i64 noundef %31)
  %32 = getelementptr inbounds [1 x %struct.__va_list_tag], ptr %10, i64 0, i64 0
  %33 = load ptr, ptr %8, align 8
  call void @llvm.va_copy.p0(ptr %32, ptr %33)
  %34 = invoke noundef ptr @_ZNK8nanobind6detail15scoped_pymallocIcE3getEv(ptr noundef nonnull align 8 dereferenceable(8) %13)
          to label %35 unwind label %47

35:                                               ; preds = %28
  %36 = load i32, ptr %11, align 4
  %37 = add nsw i32 %36, 1
  %38 = sext i32 %37 to i64
  %39 = load ptr, ptr %7, align 8
  %40 = getelementptr inbounds [1 x %struct.__va_list_tag], ptr %10, i64 0, i64 0
  %41 = call i32 @vsnprintf(ptr noundef %34, i64 noundef %38, ptr noundef %39, ptr noundef %40) #20
  %42 = getelementptr inbounds [1 x %struct.__va_list_tag], ptr %10, i64 0, i64 0
  call void @llvm.va_end.p0(ptr %42)
  %43 = load i32, ptr %6, align 4
  %44 = invoke noundef ptr @_ZNK8nanobind6detail15scoped_pymallocIcE3getEv(ptr noundef nonnull align 8 dereferenceable(8) %13)
          to label %45 unwind label %47

45:                                               ; preds = %35
  invoke void @_ZN8nanobind17builtin_exceptionC1ENS_14exception_typeEPKc(ptr noundef nonnull align 8 dereferenceable(20) %0, i32 noundef %43, ptr noundef %44)
          to label %46 unwind label %47

46:                                               ; preds = %45
  store i32 1, ptr %12, align 4
  call void @_ZN8nanobind6detail15scoped_pymallocIcED2Ev(ptr noundef nonnull align 8 dereferenceable(8) %13) #20
  call void @llvm.lifetime.end.p0(i64 8, ptr %13) #20
  br label %51

47:                                               ; preds = %45, %35, %28
  %48 = landingpad { ptr, i32 }
          cleanup
  %49 = extractvalue { ptr, i32 } %48, 0
  store ptr %49, ptr %14, align 8
  %50 = extractvalue { ptr, i32 } %48, 1
  store i32 %50, ptr %15, align 4
  call void @_ZN8nanobind6detail15scoped_pymallocIcED2Ev(ptr noundef nonnull align 8 dereferenceable(8) %13) #20
  call void @llvm.lifetime.end.p0(i64 8, ptr %13) #20
  call void @llvm.lifetime.end.p0(i64 4, ptr %11) #20
  call void @llvm.lifetime.end.p0(i64 24, ptr %10) #20
  call void @llvm.lifetime.end.p0(i64 512, ptr %9) #20
  br label %52

51:                                               ; preds = %46, %25
  call void @llvm.lifetime.end.p0(i64 4, ptr %11) #20
  call void @llvm.lifetime.end.p0(i64 24, ptr %10) #20
  call void @llvm.lifetime.end.p0(i64 512, ptr %9) #20
  ret void

52:                                               ; preds = %47
  %53 = load ptr, ptr %14, align 8
  %54 = load i32, ptr %15, align 4
  %55 = insertvalue { ptr, i32 } poison, ptr %53, 0
  %56 = insertvalue { ptr, i32 } %55, i32 %54, 1
  resume { ptr, i32 } %56
}