; Function Attrs: mustprogress noinline uwtable
define internal fastcc void @_ZN8nanobind6detailL16create_exceptionENS_14exception_typeEPKcP13__va_list_tag(ptr dead_on_unwind noalias nonnull writable align 8 %0, i32 noundef range(i32 0, 6) %1, ptr noundef readonly captures(none) %2, ptr noundef nonnull %3) unnamed_addr #3 personality ptr @__gxx_personality_v0 {
  %5 = alloca [512 x i8], align 16
  %6 = alloca [1 x %struct.__va_list_tag], align 16
  call void @llvm.lifetime.start.p0(i64 512, ptr nonnull %5) #27
  call void @llvm.lifetime.start.p0(i64 24, ptr nonnull %6) #27
  call void @llvm.va_copy.p0(ptr nonnull %6, ptr nonnull %3)
  %7 = call i32 @vsnprintf(ptr noundef nonnull %5, i64 noundef 512, ptr noundef %2, ptr noundef nonnull %6) #27
  call void @llvm.va_end.p0(ptr nonnull %6)
  %8 = icmp slt i32 %7, 512
  br i1 %8, label %9, label %10

9:                                                ; preds = %4
  call void @_ZN8nanobind17builtin_exceptionC1ENS_14exception_typeEPKc(ptr noundef nonnull align 8 dereferenceable(20) %0, i32 noundef %1, ptr noundef nonnull %5)
  br label %_ZN8nanobind6detail15scoped_pymallocIcED2Ev.exit

10:                                               ; preds = %4
  %11 = add nuw nsw i32 %7, 1
  %12 = zext nneg i32 %11 to i64
  %13 = call ptr @PyMem_Malloc(i64 noundef %12)
  %.not.i = icmp eq ptr %13, null
  br i1 %.not.i, label %14, label %_ZN8nanobind6detail15scoped_pymallocIcEC2Em.exit

14:                                               ; preds = %10
  call void (ptr, ...) @_ZN8nanobind6detail4failEPKcz(ptr noundef nonnull @.str.17, i64 noundef %12) #29
  unreachable

_ZN8nanobind6detail15scoped_pymallocIcEC2Em.exit: ; preds = %10
  call void @llvm.va_copy.p0(ptr nonnull %6, ptr nonnull %3)
  %15 = call i32 @vsnprintf(ptr noundef nonnull %13, i64 noundef %12, ptr noundef %2, ptr noundef nonnull %6) #27
  call void @llvm.va_end.p0(ptr nonnull %6)
  invoke void @_ZN8nanobind17builtin_exceptionC1ENS_14exception_typeEPKc(ptr noundef nonnull align 8 dereferenceable(20) %0, i32 noundef %1, ptr noundef nonnull %13)
          to label %16 unwind label %20

16:                                               ; preds = %_ZN8nanobind6detail15scoped_pymallocIcEC2Em.exit
  invoke void @PyMem_Free(ptr noundef nonnull %13)
          to label %_ZN8nanobind6detail15scoped_pymallocIcED2Ev.exit unwind label %17

17:                                               ; preds = %16
  %18 = landingpad { ptr, i32 }
          catch ptr null
  %19 = extractvalue { ptr, i32 } %18, 0
  call void @__clang_call_terminate(ptr %19) #29
  unreachable

20:                                               ; preds = %_ZN8nanobind6detail15scoped_pymallocIcEC2Em.exit
  %21 = landingpad { ptr, i32 }
          cleanup
  invoke void @PyMem_Free(ptr noundef nonnull %13)
          to label %_ZN8nanobind6detail15scoped_pymallocIcED2Ev.exit10 unwind label %22

22:                                               ; preds = %20
  %23 = landingpad { ptr, i32 }
          catch ptr null
  %24 = extractvalue { ptr, i32 } %23, 0
  call void @__clang_call_terminate(ptr %24) #29
  unreachable

_ZN8nanobind6detail15scoped_pymallocIcED2Ev.exit10: ; preds = %20
  call void @llvm.lifetime.end.p0(i64 24, ptr nonnull %6) #27
  call void @llvm.lifetime.end.p0(i64 512, ptr nonnull %5) #27
  resume { ptr, i32 } %21

_ZN8nanobind6detail15scoped_pymallocIcED2Ev.exit: ; preds = %16, %9
  call void @llvm.lifetime.end.p0(i64 24, ptr nonnull %6) #27
  call void @llvm.lifetime.end.p0(i64 512, ptr nonnull %5) #27
  ret void
}